target datalayout = "e-m:e-p270:32:32-p271:32:32-p272:64:64-i64:64-i128:128-f80:128-n8:16:32:64-S128"
target triple = "x86_64-pc-linux-gnu"

%struct.pointf_s = type { double, double }
%struct.boxf = type { %struct.pointf_s, %struct.pointf_s }
%struct.htmllabel_t = type { %union.anon.2, i32 }
%union.anon.2 = type { ptr }
%struct.htmltbl_t = type { %struct.htmldata_t, %union.anon.3, i8, ptr, ptr, i64, i64, ptr, i8 }
%struct.htmldata_t = type { ptr, ptr, ptr, ptr, ptr, ptr, ptr, i32, i8, i8, i8, i8, i16, i16, i16, %struct.htmlstyle_t, %struct.boxf }
%struct.htmlstyle_t = type { i8 }
%union.anon.3 = type { %struct.anon.5 }
%struct.anon.5 = type { ptr, %struct.rows_t }
%struct.rows_t = type { ptr, i64, i64, i64 }
%struct.anon.4 = type { ptr, ptr }
%struct.htmlcell_t = type { %struct.htmldata_t, i16, i16, i16, i16, %struct.htmllabel_t, ptr, i8 }

; Function Attrs: nounwind uwtable
define internal ptr @portToCell(ptr noundef %0, ptr noundef %1) #0 {
  %3 = alloca ptr, align 8
  %4 = alloca ptr, align 8
  %5 = alloca ptr, align 8
  store ptr %0, ptr %3, align 8, !tbaa !123
  store ptr %1, ptr %4, align 8, !tbaa !122
  call void @llvm.lifetime.start.p0(i64 8, ptr %5) #14
  %6 = load ptr, ptr %3, align 8, !tbaa !123
  %7 = getelementptr inbounds nuw %struct.htmlcell_t, ptr %6, i32 0, i32 0
  %8 = getelementptr inbounds nuw %struct.htmldata_t, ptr %7, i32 0, i32 1
  %9 = load ptr, ptr %8, align 8, !tbaa !276
  %10 = icmp ne ptr %9, null
  br i1 %10, label %11, label %22

11:                                               ; preds = %2
  %12 = load ptr, ptr %3, align 8, !tbaa !123
  %13 = getelementptr inbounds nuw %struct.htmlcell_t, ptr %12, i32 0, i32 0
  %14 = getelementptr inbounds nuw %struct.htmldata_t, ptr %13, i32 0, i32 1
  %15 = load ptr, ptr %14, align 8, !tbaa !276
  %16 = load ptr, ptr %4, align 8, !tbaa !122
  %17 = call i32 @strcasecmp(ptr noundef %15, ptr noundef %16) #16
  %18 = icmp eq i32 %17, 0
  br i1 %18, label %19, label %22

19:                                               ; preds = %11
  %20 = load ptr, ptr %3, align 8, !tbaa !123
  %21 = getelementptr inbounds nuw %struct.htmlcell_t, ptr %20, i32 0, i32 0
  store ptr %21, ptr %5, align 8, !tbaa !103
  br label %37

22:                                               ; preds = %11, %2
  %23 = load ptr, ptr %3, align 8, !tbaa !123
  %24 = getelementptr inbounds nuw %struct.htmlcell_t, ptr %23, i32 0, i32 5
  %25 = getelementptr inbounds nuw %struct.htmllabel_t, ptr %24, i32 0, i32 1
  %26 = load i32, ptr %25, align 8, !tbaa !250
  %27 = icmp eq i32 %26, 1
  br i1 %27, label %28, label %35

28:                                               ; preds = %22
  %29 = load ptr, ptr %3, align 8, !tbaa !123
  %30 = getelementptr inbounds nuw %struct.htmlcell_t, ptr %29, i32 0, i32 5
  %31 = getelementptr inbounds nuw %struct.htmllabel_t, ptr %30, i32 0, i32 0
  %32 = load ptr, ptr %31, align 8, !tbaa !52
  %33 = load ptr, ptr %4, align 8, !tbaa !122
  %34 = call ptr @portToTbl(ptr noundef %32, ptr noundef %33)
  store ptr %34, ptr %5, align 8, !tbaa !103
  br label %36

35:                                               ; preds = %22
  store ptr null, ptr %5, align 8, !tbaa !103
  br label %36

36:                                               ; preds = %35, %28
  br label %37

37:                                               ; preds = %36, %19
  %38 = load ptr, ptr %5, align 8, !tbaa !103
  call void @llvm.lifetime.end.p0(i64 8, ptr %5) #14
  ret ptr %38
}

; Function Attrs: nounwind uwtable
define internal ptr @portToTbl(ptr noundef %0, ptr noundef %1) #0 {
  %3 = alloca ptr, align 8
  %4 = alloca ptr, align 8
  %5 = alloca ptr, align 8
  %6 = alloca ptr, align 8
  %7 = alloca ptr, align 8
  store ptr %0, ptr %3, align 8, !tbaa !64
  store ptr %1, ptr %4, align 8, !tbaa !122
  call void @llvm.lifetime.start.p0(i64 8, ptr %5) #14
  call void @llvm.lifetime.start.p0(i64 8, ptr %6) #14
  call void @llvm.lifetime.start.p0(i64 8, ptr %7) #14
  %8 = load ptr, ptr %3, align 8, !tbaa !64
  %9 = getelementptr inbounds nuw %struct.htmltbl_t, ptr %8, i32 0, i32 0
  %10 = getelementptr inbounds nuw %struct.htmldata_t, ptr %9, i32 0, i32 1
  %11 = load ptr, ptr %10, align 8, !tbaa !171
  %12 = icmp ne ptr %11, null
  br i1 %12, label %13, label %24

13:                                               ; preds = %2
  %14 = load ptr, ptr %3, align 8, !tbaa !64
  %15 = getelementptr inbounds nuw %struct.htmltbl_t, ptr %14, i32 0, i32 0
  %16 = getelementptr inbounds nuw %struct.htmldata_t, ptr %15, i32 0, i32 1
  %17 = load ptr, ptr %16, align 8, !tbaa !171
  %18 = load ptr, ptr %4, align 8, !tbaa !122
  %19 = call i32 @strcasecmp(ptr noundef %17, ptr noundef %18) #16
  %20 = icmp eq i32 %19, 0
  br i1 %20, label %21, label %24

21:                                               ; preds = %13
  %22 = load ptr, ptr %3, align 8, !tbaa !64
  %23 = getelementptr inbounds nuw %struct.htmltbl_t, ptr %22, i32 0, i32 0
  store ptr %23, ptr %5, align 8, !tbaa !103
  br label %42

24:                                               ; preds = %13, %2
  store ptr null, ptr %5, align 8, !tbaa !103
  %25 = load ptr, ptr %3, align 8, !tbaa !64
  %26 = getelementptr inbounds nuw %struct.htmltbl_t, ptr %25, i32 0, i32 1
  %27 = getelementptr inbounds nuw %struct.anon.4, ptr %26, i32 0, i32 1
  %28 = load ptr, ptr %27, align 8, !tbaa !52
  store ptr %28, ptr %6, align 8, !tbaa !105
  br label %29

29:                                               ; preds = %40, %24
  %30 = load ptr, ptr %6, align 8, !tbaa !105
  %31 = getelementptr inbounds nuw ptr, ptr %30, i32 1
  store ptr %31, ptr %6, align 8, !tbaa !105
  %32 = load ptr, ptr %30, align 8, !tbaa !123
  store ptr %32, ptr %7, align 8, !tbaa !123
  %33 = icmp ne ptr %32, null
  br i1 %33, label %34, label %41

34:                                               ; preds = %29
  %35 = load ptr, ptr %7, align 8, !tbaa !123
  %36 = load ptr, ptr %4, align 8, !tbaa !122
  %37 = call ptr @portToCell(ptr noundef %35, ptr noundef %36)
  store ptr %37, ptr %5, align 8, !tbaa !103
  %38 = icmp ne ptr %37, null
  br i1 %38, label %39, label %40

39:                                               ; preds = %34
  br label %41

40:                                               ; preds = %34
  br label %29, !llvm.loop !172

41:                                               ; preds = %39, %29
  br label %42

42:                                               ; preds = %41, %21
  %43 = load ptr, ptr %5, align 8, !tbaa !103
  call void @llvm.lifetime.end.p0(i64 8, ptr %7) #14
  call void @llvm.lifetime.end.p0(i64 8, ptr %6) #14
  call void @llvm.lifetime.end.p0(i64 8, ptr %5) #14
  ret ptr %43
}