; Function Attrs: nofree nounwind memory(read) uwtable
define internal fastcc ptr @portToTbl(ptr noundef readonly captures(ret: address, provenance) %0, ptr noundef readonly captures(none) %1) unnamed_addr #7 {
  %3 = getelementptr inbounds nuw i8, ptr %0, i64 8
  %4 = load ptr, ptr %3, align 8, !tbaa !193
  %.not = icmp eq ptr %4, null
  br i1 %.not, label %8, label %5

5:                                                ; preds = %2
  %6 = tail call i32 @strcasecmp(ptr noundef nonnull %4, ptr noundef %1) #26
  %7 = icmp eq i32 %6, 0
  br i1 %7, label %portToCell.exit.thread, label %8

8:                                                ; preds = %5, %2
  %9 = getelementptr inbounds nuw i8, ptr %0, i64 112
  %10 = load ptr, ptr %9, align 8, !tbaa !21
  br label %11

11:                                               ; preds = %portToCell.exit, %8
  %.09 = phi ptr [ %10, %8 ], [ %14, %portToCell.exit ]
  %12 = load ptr, ptr %.09, align 8, !tbaa !102
  %.not14 = icmp eq ptr %12, null
  br i1 %.not14, label %portToCell.exit.thread, label %13

13:                                               ; preds = %11
  %14 = getelementptr inbounds nuw i8, ptr %.09, i64 8
  %15 = getelementptr inbounds nuw i8, ptr %12, i64 8
  %16 = load ptr, ptr %15, align 8, !tbaa !194
  %.not.i = icmp eq ptr %16, null
  br i1 %.not.i, label %20, label %17

17:                                               ; preds = %13
  %18 = tail call i32 @strcasecmp(ptr noundef nonnull %16, ptr noundef %1) #26
  %19 = icmp eq i32 %18, 0
  br i1 %19, label %portToCell.exit.thread, label %20

20:                                               ; preds = %17, %13
  %21 = getelementptr inbounds nuw i8, ptr %12, i64 120
  %22 = load i32, ptr %21, align 8, !tbaa !112
  %23 = icmp eq i32 %22, 1
  br i1 %23, label %24, label %portToCell.exit

24:                                               ; preds = %20
  %25 = getelementptr inbounds nuw i8, ptr %12, i64 112
  %26 = load ptr, ptr %25, align 8, !tbaa !21
  %27 = tail call fastcc ptr @portToTbl(ptr noundef %26, ptr noundef %1)
  br label %portToCell.exit

portToCell.exit:                                  ; preds = %20, %24
  %.0.i = phi ptr [ %27, %24 ], [ null, %20 ]
  %.not15 = icmp eq ptr %.0.i, null
  br i1 %.not15, label %11, label %portToCell.exit.thread, !llvm.loop !195

portToCell.exit.thread:                           ; preds = %17, %11, %portToCell.exit, %5
  %.0 = phi ptr [ %0, %5 ], [ %12, %17 ], [ null, %11 ], [ %.0.i, %portToCell.exit ]
  ret ptr %.0
}